; Function Attrs: mustprogress nofree norecurse nosync nounwind memory(argmem: readwrite) uwtable
define void @_ZN14arrow_vendored17double_conversion6Bignum12AssignBignumERKS1_(ptr noundef nonnull writeonly align 4 captures(none) dereferenceable(516) initializes((2, 4)) %0, ptr noundef nonnull readonly align 4 captures(none) dereferenceable(516) %1) local_unnamed_addr #4 align 2 {
  %3 = getelementptr inbounds nuw i8, ptr %1, i64 2
  %4 = load i16, ptr %3, align 2, !tbaa !8
  %5 = getelementptr inbounds nuw i8, ptr %0, i64 2
  store i16 %4, ptr %5, align 2, !tbaa !8
  %6 = load i16, ptr %1, align 4, !tbaa !3
  %7 = icmp sgt i16 %6, 0
  br i1 %7, label %.lr.ph, label %._crit_edge

.lr.ph:                                           ; preds = %2
  %wide.trip.count = zext nneg i16 %6 to i64
  %8 = getelementptr inbounds nuw i8, ptr %1, i64 4
  %9 = getelementptr inbounds nuw i8, ptr %0, i64 4
  br label %10

._crit_edge:                                      ; preds = %10, %2
  store i16 %6, ptr %0, align 4, !tbaa !3
  ret void

10:                                               ; preds = %.lr.ph, %10
  %indvars.iv = phi i64 [ 0, %.lr.ph ], [ %indvars.iv.next, %10 ]
  %11 = getelementptr inbounds nuw [128 x i32], ptr %8, i64 0, i64 %indvars.iv
  %12 = load i32, ptr %11, align 4, !tbaa !9
  %13 = getelementptr inbounds nuw [128 x i32], ptr %9, i64 0, i64 %indvars.iv
  store i32 %12, ptr %13, align 4, !tbaa !9
  %indvars.iv.next = add nuw nsw i64 %indvars.iv, 1
  %exitcond.not = icmp eq i64 %indvars.iv.next, %wide.trip.count
  br i1 %exitcond.not, label %._crit_edge, label %10, !llvm.loop !13
}